target datalayout = "e-m:e-p270:32:32-p271:32:32-p272:64:64-i64:64-i128:128-f80:128-n8:16:32:64-S128"
target triple = "x86_64-pc-linux-gnu"

%struct.TargetEntry = type { %struct.Expr, ptr, i16, ptr, i32, i32, i16, i8 }
%struct.Expr = type { i32 }

; Function Attrs: nounwind uwtable
define dso_local void @updateTargetListEntry(ptr noundef %0, ptr noundef %1, ptr noundef %2, i32 noundef %3, ptr noundef %4, i32 noundef %5) #0 {
  %7 = alloca ptr, align 8
  %8 = alloca ptr, align 8
  %9 = alloca ptr, align 8
  %10 = alloca i32, align 4
  %11 = alloca ptr, align 8
  %12 = alloca i32, align 4
  store ptr %0, ptr %7, align 8
  store ptr %1, ptr %8, align 8
  store ptr %2, ptr %9, align 8
  store i32 %3, ptr %10, align 4
  store ptr %4, ptr %11, align 8
  store i32 %5, ptr %12, align 4
  %13 = load ptr, ptr %7, align 8
  %14 = load ptr, ptr %8, align 8
  %15 = getelementptr inbounds nuw %struct.TargetEntry, ptr %14, i32 0, i32 1
  %16 = load ptr, ptr %15, align 8
  %17 = load ptr, ptr %9, align 8
  %18 = load i32, ptr %10, align 4
  %19 = load ptr, ptr %11, align 8
  %20 = load i32, ptr %12, align 4
  %21 = call ptr @transformAssignedExpr(ptr noundef %13, ptr noundef %16, i32 noundef 17, ptr noundef %17, i32 noundef %18, ptr noundef %19, i32 noundef %20)
  %22 = load ptr, ptr %8, align 8
  %23 = getelementptr inbounds nuw %struct.TargetEntry, ptr %22, i32 0, i32 1
  store ptr %21, ptr %23, align 8
  %24 = load i32, ptr %10, align 4
  %25 = trunc i32 %24 to i16
  %26 = load ptr, ptr %8, align 8
  %27 = getelementptr inbounds nuw %struct.TargetEntry, ptr %26, i32 0, i32 2
  store i16 %25, ptr %27, align 8
  %28 = load ptr, ptr %9, align 8
  %29 = load ptr, ptr %8, align 8
  %30 = getelementptr inbounds nuw %struct.TargetEntry, ptr %29, i32 0, i32 3
  store ptr %28, ptr %30, align 8
  ret void
}