; Function Attrs: nounwind uwtable
define dso_local void @updateTargetListEntry(ptr noundef %0, ptr noundef captures(none) initializes((16, 18), (24, 32)) %1, ptr noundef %2, i32 noundef %3, ptr noundef captures(address_is_null) %4, i32 noundef %5) local_unnamed_addr #0 {
  %7 = getelementptr inbounds nuw i8, ptr %1, i64 8
  %8 = load ptr, ptr %7, align 8
  %9 = tail call ptr @transformAssignedExpr(ptr noundef %0, ptr noundef %8, i32 noundef 17, ptr noundef %2, i32 noundef %3, ptr noundef %4, i32 noundef %5)
  store ptr %9, ptr %7, align 8
  %10 = trunc i32 %3 to i16
  %11 = getelementptr inbounds nuw i8, ptr %1, i64 16
  store i16 %10, ptr %11, align 8
  %12 = getelementptr inbounds nuw i8, ptr %1, i64 24
  store ptr %2, ptr %12, align 8
  ret void
}